target datalayout = "e-m:e-p270:32:32-p271:32:32-p272:64:64-i64:64-i128:128-f80:128-n8:16:32:64-S128"
target triple = "x86_64-pc-linux-gnu"

%struct.CPU = type { ptr, ptr }
%struct._GPtrArray = type { ptr, i32 }
%struct.Register = type { ptr, ptr, ptr, ptr }
%struct._GByteArray = type { ptr, i32 }

@.str.7 = private unnamed_addr constant [34 x i8] c"../qemu/contrib/plugins/execlog.c\00", align 1
@__func__.insn_check_regs = private unnamed_addr constant [16 x i8] c"insn_check_regs\00", align 1
@.str.12 = private unnamed_addr constant [21 x i8] c"sz == reg->last->len\00", align 1
@.str.13 = private unnamed_addr constant [11 x i8] c", %s -> 0x\00", align 1
@.str.14 = private unnamed_addr constant [5 x i8] c"%02x\00", align 1

; Function Attrs: nounwind sspstrong uwtable
define internal void @insn_check_regs(ptr noundef %0) #0 {
  %2 = alloca ptr, align 8
  %3 = alloca i32, align 4
  %4 = alloca i32, align 4
  %5 = alloca ptr, align 8
  %6 = alloca i32, align 4
  %7 = alloca i32, align 4
  %8 = alloca i32, align 4
  %9 = alloca ptr, align 8
  %10 = alloca i32, align 4
  store ptr %0, ptr %2, align 8
  call void @llvm.lifetime.start.p0(i64 4, ptr %3) #11
  store i32 0, ptr %3, align 4
  br label %11

11:                                               ; preds = %119, %1
  %12 = load i32, ptr %3, align 4
  %13 = load ptr, ptr %2, align 8
  %14 = getelementptr inbounds nuw %struct.CPU, ptr %13, i32 0, i32 1
  %15 = load ptr, ptr %14, align 8
  %16 = getelementptr inbounds nuw %struct._GPtrArray, ptr %15, i32 0, i32 1
  %17 = load i32, ptr %16, align 8
  %18 = icmp ult i32 %12, %17
  br i1 %18, label %20, label %19

19:                                               ; preds = %11
  store i32 2, ptr %4, align 4
  call void @llvm.lifetime.end.p0(i64 4, ptr %3) #11
  br label %122

20:                                               ; preds = %11
  call void @llvm.lifetime.start.p0(i64 8, ptr %5) #11
  %21 = load ptr, ptr %2, align 8
  %22 = getelementptr inbounds nuw %struct.CPU, ptr %21, i32 0, i32 1
  %23 = load ptr, ptr %22, align 8
  %24 = getelementptr inbounds nuw %struct._GPtrArray, ptr %23, i32 0, i32 0
  %25 = load ptr, ptr %24, align 8
  %26 = load i32, ptr %3, align 4
  %27 = sext i32 %26 to i64
  %28 = getelementptr inbounds ptr, ptr %25, i64 %27
  %29 = load ptr, ptr %28, align 8
  store ptr %29, ptr %5, align 8
  call void @llvm.lifetime.start.p0(i64 4, ptr %6) #11
  store i32 0, ptr %6, align 4, !annotation !7
  %30 = load ptr, ptr %5, align 8
  %31 = getelementptr inbounds nuw %struct.Register, ptr %30, i32 0, i32 2
  %32 = load ptr, ptr %31, align 8
  %33 = call ptr @g_byte_array_set_size(ptr noundef %32, i32 noundef 0)
  %34 = load ptr, ptr %5, align 8
  %35 = getelementptr inbounds nuw %struct.Register, ptr %34, i32 0, i32 0
  %36 = load ptr, ptr %35, align 8
  %37 = load ptr, ptr %5, align 8
  %38 = getelementptr inbounds nuw %struct.Register, ptr %37, i32 0, i32 2
  %39 = load ptr, ptr %38, align 8
  %40 = call i32 @qemu_plugin_read_register(ptr noundef %36, ptr noundef %39)
  store i32 %40, ptr %6, align 4
  br label %41

41:                                               ; preds = %20
  call void @llvm.lifetime.start.p0(i64 4, ptr %7) #11
  store i32 0, ptr %7, align 4, !annotation !7
  %42 = load i32, ptr %6, align 4
  %43 = load ptr, ptr %5, align 8
  %44 = getelementptr inbounds nuw %struct.Register, ptr %43, i32 0, i32 1
  %45 = load ptr, ptr %44, align 8
  %46 = getelementptr inbounds nuw %struct._GByteArray, ptr %45, i32 0, i32 1
  %47 = load i32, ptr %46, align 8
  %48 = icmp eq i32 %42, %47
  br i1 %48, label %49, label %50

49:                                               ; preds = %41
  store i32 1, ptr %7, align 4
  br label %51

50:                                               ; preds = %41
  store i32 0, ptr %7, align 4
  br label %51

51:                                               ; preds = %50, %49
  %52 = load i32, ptr %7, align 4
  store i32 %52, ptr %8, align 4
  call void @llvm.lifetime.end.p0(i64 4, ptr %7) #11
  %53 = load i32, ptr %8, align 4
  %54 = sext i32 %53 to i64
  %55 = call i64 @llvm.expect.i64(i64 %54, i64 1)
  %56 = icmp ne i64 %55, 0
  br i1 %56, label %57, label %58

57:                                               ; preds = %51
  br label %59

58:                                               ; preds = %51
  call void @g_assertion_message_expr(ptr noundef null, ptr noundef @.str.7, i32 noundef 98, ptr noundef @__func__.insn_check_regs, ptr noundef @.str.12) #14
  unreachable

59:                                               ; preds = %57
  br label %60

60:                                               ; preds = %59
  br label %61

61:                                               ; preds = %60
  %62 = load ptr, ptr %5, align 8
  %63 = getelementptr inbounds nuw %struct.Register, ptr %62, i32 0, i32 1
  %64 = load ptr, ptr %63, align 8
  %65 = getelementptr inbounds nuw %struct._GByteArray, ptr %64, i32 0, i32 0
  %66 = load ptr, ptr %65, align 8
  %67 = load ptr, ptr %5, align 8
  %68 = getelementptr inbounds nuw %struct.Register, ptr %67, i32 0, i32 2
  %69 = load ptr, ptr %68, align 8
  %70 = getelementptr inbounds nuw %struct._GByteArray, ptr %69, i32 0, i32 0
  %71 = load ptr, ptr %70, align 8
  %72 = load i32, ptr %6, align 4
  %73 = sext i32 %72 to i64
  %74 = call i32 @memcmp(ptr noundef %66, ptr noundef %71, i64 noundef %73) #15
  %75 = icmp ne i32 %74, 0
  br i1 %75, label %76, label %118

76:                                               ; preds = %61
  call void @llvm.lifetime.start.p0(i64 8, ptr %9) #11
  %77 = load ptr, ptr %5, align 8
  %78 = getelementptr inbounds nuw %struct.Register, ptr %77, i32 0, i32 1
  %79 = load ptr, ptr %78, align 8
  store ptr %79, ptr %9, align 8
  %80 = load ptr, ptr %2, align 8
  %81 = getelementptr inbounds nuw %struct.CPU, ptr %80, i32 0, i32 0
  %82 = load ptr, ptr %81, align 8
  %83 = load ptr, ptr %5, align 8
  %84 = getelementptr inbounds nuw %struct.Register, ptr %83, i32 0, i32 3
  %85 = load ptr, ptr %84, align 8
  call void (ptr, ptr, ...) @g_string_append_printf(ptr noundef %82, ptr noundef @.str.13, ptr noundef %85)
  call void @llvm.lifetime.start.p0(i64 4, ptr %10) #11
  %86 = load i32, ptr %6, align 4
  %87 = sub i32 %86, 1
  store i32 %87, ptr %10, align 4
  br label %88

88:                                               ; preds = %106, %76
  %89 = load i32, ptr %10, align 4
  %90 = icmp sge i32 %89, 0
  br i1 %90, label %92, label %91

91:                                               ; preds = %88
  store i32 7, ptr %4, align 4
  call void @llvm.lifetime.end.p0(i64 4, ptr %10) #11
  br label %109

92:                                               ; preds = %88
  %93 = load ptr, ptr %2, align 8
  %94 = getelementptr inbounds nuw %struct.CPU, ptr %93, i32 0, i32 0
  %95 = load ptr, ptr %94, align 8
  %96 = load ptr, ptr %5, align 8
  %97 = getelementptr inbounds nuw %struct.Register, ptr %96, i32 0, i32 2
  %98 = load ptr, ptr %97, align 8
  %99 = getelementptr inbounds nuw %struct._GByteArray, ptr %98, i32 0, i32 0
  %100 = load ptr, ptr %99, align 8
  %101 = load i32, ptr %10, align 4
  %102 = sext i32 %101 to i64
  %103 = getelementptr inbounds i8, ptr %100, i64 %102
  %104 = load i8, ptr %103, align 1
  %105 = zext i8 %104 to i32
  call void (ptr, ptr, ...) @g_string_append_printf(ptr noundef %95, ptr noundef @.str.14, i32 noundef %105)
  br label %106

106:                                              ; preds = %92
  %107 = load i32, ptr %10, align 4
  %108 = add i32 %107, -1
  store i32 %108, ptr %10, align 4
  br label %88, !llvm.loop !15

109:                                              ; preds = %91
  %110 = load ptr, ptr %5, align 8
  %111 = getelementptr inbounds nuw %struct.Register, ptr %110, i32 0, i32 2
  %112 = load ptr, ptr %111, align 8
  %113 = load ptr, ptr %5, align 8
  %114 = getelementptr inbounds nuw %struct.Register, ptr %113, i32 0, i32 1
  store ptr %112, ptr %114, align 8
  %115 = load ptr, ptr %9, align 8
  %116 = load ptr, ptr %5, align 8
  %117 = getelementptr inbounds nuw %struct.Register, ptr %116, i32 0, i32 2
  store ptr %115, ptr %117, align 8
  call void @llvm.lifetime.end.p0(i64 8, ptr %9) #11
  br label %118

118:                                              ; preds = %109, %61
  call void @llvm.lifetime.end.p0(i64 4, ptr %6) #11
  call void @llvm.lifetime.end.p0(i64 8, ptr %5) #11
  br label %119

119:                                              ; preds = %118
  %120 = load i32, ptr %3, align 4
  %121 = add i32 %120, 1
  store i32 %121, ptr %3, align 4
  br label %11, !llvm.loop !16

122:                                              ; preds = %19
  ret void
}