; Function Attrs: nounwind sspstrong uwtable
define internal fastcc void @insn_check_regs(ptr noundef readonly captures(none) %0) unnamed_addr #0 {
  %2 = getelementptr inbounds nuw i8, ptr %0, i64 8
  %3 = load ptr, ptr %2, align 8
  %4 = getelementptr inbounds nuw i8, ptr %3, i64 8
  %5 = load i32, ptr %4, align 8
  %.not36 = icmp eq i32 %5, 0
  br i1 %.not36, label %._crit_edge35, label %.lr.ph34

._crit_edge35:                                    ; preds = %40, %1
  ret void

.lr.ph34:                                         ; preds = %1, %40
  %6 = phi ptr [ %42, %40 ], [ %3, %1 ]
  %.02732 = phi i32 [ %41, %40 ], [ 0, %1 ]
  %7 = load ptr, ptr %6, align 8
  %8 = sext i32 %.02732 to i64
  %9 = getelementptr inbounds ptr, ptr %7, i64 %8
  %10 = load ptr, ptr %9, align 8
  %11 = getelementptr inbounds nuw i8, ptr %10, i64 16
  %12 = load ptr, ptr %11, align 8
  %13 = tail call ptr @g_byte_array_set_size(ptr noundef %12, i32 noundef 0) #7
  %14 = load ptr, ptr %10, align 8
  %15 = load ptr, ptr %11, align 8
  %16 = tail call i32 @qemu_plugin_read_register(ptr noundef %14, ptr noundef %15) #7
  %17 = getelementptr inbounds nuw i8, ptr %10, i64 8
  %18 = load ptr, ptr %17, align 8
  %19 = getelementptr inbounds nuw i8, ptr %18, i64 8
  %20 = load i32, ptr %19, align 8
  %.not = icmp eq i32 %16, %20
  br i1 %.not, label %22, label %21, !prof !16

21:                                               ; preds = %.lr.ph34
  tail call void @g_assertion_message_expr(ptr noundef null, ptr noundef nonnull @.str.7, i32 noundef 98, ptr noundef nonnull @__func__.insn_check_regs, ptr noundef nonnull @.str.12) #10
  unreachable

22:                                               ; preds = %.lr.ph34
  %23 = load ptr, ptr %18, align 8
  %24 = load ptr, ptr %11, align 8
  %25 = load ptr, ptr %24, align 8
  %26 = sext i32 %16 to i64
  %bcmp = tail call i32 @bcmp(ptr %23, ptr %25, i64 %26)
  %.not29 = icmp eq i32 %bcmp, 0
  br i1 %.not29, label %40, label %27

27:                                               ; preds = %22
  %28 = load ptr, ptr %0, align 8
  %29 = getelementptr inbounds nuw i8, ptr %10, i64 24
  %30 = load ptr, ptr %29, align 8
  tail call void (ptr, ptr, ...) @g_string_append_printf(ptr noundef %28, ptr noundef nonnull @.str.13, ptr noundef %30) #7
  %.030 = add i32 %16, -1
  %31 = icmp sgt i32 %.030, -1
  br i1 %31, label %.lr.ph.preheader, label %._crit_edge

.lr.ph.preheader:                                 ; preds = %27
  %32 = zext nneg i32 %.030 to i64
  br label %.lr.ph

._crit_edge:                                      ; preds = %.lr.ph, %27
  %33 = load ptr, ptr %11, align 8
  store ptr %33, ptr %17, align 8
  store ptr %18, ptr %11, align 8
  br label %40

.lr.ph:                                           ; preds = %.lr.ph.preheader, %.lr.ph
  %indvars.iv = phi i64 [ %32, %.lr.ph.preheader ], [ %indvars.iv.next, %.lr.ph ]
  %34 = load ptr, ptr %0, align 8
  %35 = load ptr, ptr %11, align 8
  %36 = load ptr, ptr %35, align 8
  %37 = getelementptr inbounds nuw i8, ptr %36, i64 %indvars.iv
  %38 = load i8, ptr %37, align 1
  %39 = zext i8 %38 to i32
  tail call void (ptr, ptr, ...) @g_string_append_printf(ptr noundef %34, ptr noundef nonnull @.str.14, i32 noundef %39) #7
  %indvars.iv.next = add nsw i64 %indvars.iv, -1
  %.not38 = icmp eq i64 %indvars.iv, 0
  br i1 %.not38, label %._crit_edge, label %.lr.ph, !llvm.loop !17

40:                                               ; preds = %._crit_edge, %22
  %41 = add nuw i32 %.02732, 1
  %42 = load ptr, ptr %2, align 8
  %43 = getelementptr inbounds nuw i8, ptr %42, i64 8
  %44 = load i32, ptr %43, align 8
  %45 = icmp ult i32 %41, %44
  br i1 %45, label %.lr.ph34, label %._crit_edge35, !llvm.loop !18
}